; Function Attrs: mustprogress nounwind uwtable
define internal void @"_ZN4absl12lts_2024072222internal_any_invocable23RemoteManagerNontrivialIZNK9grpc_core12_GLOBAL__N_117XdsOverrideHostLb6Picker18PickOverriddenHostEPNS3_24XdsOverrideHostAttributeEE3$_0EEvNS1_14FunctionToCallEPNS1_15TypeErasedStateESC_"(i1 noundef zeroext %0, ptr noundef readonly captures(none) %1, ptr noundef writeonly captures(none) %2) #5 personality ptr @__gxx_personality_v0 {
  %4 = load ptr, ptr %1, align 16, !tbaa !16
  br i1 %0, label %6, label %5

5:                                                ; preds = %3
  store ptr %4, ptr %2, align 16, !tbaa !16
  br label %26

6:                                                ; preds = %3
  %7 = icmp eq ptr %4, null
  br i1 %7, label %26, label %8

8:                                                ; preds = %6
  %9 = getelementptr inbounds nuw i8, ptr %4, i64 8
  %10 = load ptr, ptr %9, align 8, !tbaa !39
  %11 = getelementptr inbounds nuw i8, ptr %4, i64 24
  %12 = icmp eq ptr %10, %11
  br i1 %12, label %_ZNKSt7__cxx1112basic_stringIcSt11char_traitsIcESaIcEE11_M_is_localEv.exit.thread.i.i.i, label %_ZNKSt7__cxx1112basic_stringIcSt11char_traitsIcESaIcEE11_M_is_localEv.exit.i.i.i

_ZNKSt7__cxx1112basic_stringIcSt11char_traitsIcESaIcEE11_M_is_localEv.exit.thread.i.i.i: ; preds = %8
  %13 = getelementptr inbounds nuw i8, ptr %4, i64 16
  %14 = load i64, ptr %13, align 8, !tbaa !31
  %15 = icmp ult i64 %14, 16
  tail call void @llvm.assume(i1 %15)
  br label %_ZNSt7__cxx1112basic_stringIcSt11char_traitsIcESaIcEED2Ev.exit.i

_ZNKSt7__cxx1112basic_stringIcSt11char_traitsIcESaIcEE11_M_is_localEv.exit.i.i.i: ; preds = %8
  %16 = load i64, ptr %11, align 8, !tbaa !16
  %17 = add i64 %16, 1
  tail call void @_ZdlPvm(ptr noundef %10, i64 noundef %17) #43
  br label %_ZNSt7__cxx1112basic_stringIcSt11char_traitsIcESaIcEED2Ev.exit.i

_ZNSt7__cxx1112basic_stringIcSt11char_traitsIcESaIcEED2Ev.exit.i: ; preds = %_ZNKSt7__cxx1112basic_stringIcSt11char_traitsIcESaIcEE11_M_is_localEv.exit.i.i.i, %_ZNKSt7__cxx1112basic_stringIcSt11char_traitsIcESaIcEE11_M_is_localEv.exit.thread.i.i.i
  %.val.i = load ptr, ptr %4, align 8, !tbaa !170
  %.not.i.i = icmp eq ptr %.val.i, null
  br i1 %.not.i.i, label %"_ZZNK9grpc_core12_GLOBAL__N_117XdsOverrideHostLb6Picker18PickOverriddenHostEPNS_24XdsOverrideHostAttributeEEN3$_0D2Ev.exit", label %18

18:                                               ; preds = %_ZNSt7__cxx1112basic_stringIcSt11char_traitsIcESaIcEED2Ev.exit.i
  %19 = getelementptr inbounds nuw i8, ptr %.val.i, i64 8
  %20 = atomicrmw sub ptr %19, i64 1 acq_rel, align 8
  %21 = icmp eq i64 %20, 1
  br i1 %21, label %22, label %"_ZZNK9grpc_core12_GLOBAL__N_117XdsOverrideHostLb6Picker18PickOverriddenHostEPNS_24XdsOverrideHostAttributeEEN3$_0D2Ev.exit", !prof !47

22:                                               ; preds = %18
  %23 = load ptr, ptr %.val.i, align 8, !tbaa !6
  %24 = getelementptr inbounds nuw i8, ptr %23, i64 16
  %25 = load ptr, ptr %24, align 8
  tail call void %25(ptr noundef nonnull align 8 dereferenceable(56) %.val.i) #40
  br label %"_ZZNK9grpc_core12_GLOBAL__N_117XdsOverrideHostLb6Picker18PickOverriddenHostEPNS_24XdsOverrideHostAttributeEEN3$_0D2Ev.exit"

"_ZZNK9grpc_core12_GLOBAL__N_117XdsOverrideHostLb6Picker18PickOverriddenHostEPNS_24XdsOverrideHostAttributeEEN3$_0D2Ev.exit": ; preds = %_ZNSt7__cxx1112basic_stringIcSt11char_traitsIcESaIcEED2Ev.exit.i, %18, %22
  tail call void @_ZdlPvm(ptr noundef nonnull %4, i64 noundef 40) #43
  br label %26

26:                                               ; preds = %6, %"_ZZNK9grpc_core12_GLOBAL__N_117XdsOverrideHostLb6Picker18PickOverriddenHostEPNS_24XdsOverrideHostAttributeEEN3$_0D2Ev.exit", %5
  ret void
}